; Function Attrs: nofree nosync nounwind memory(readwrite, inaccessiblemem: none) uwtable
define void @Gia_AcecMark_rec(ptr noundef readonly captures(none) %0, i32 noundef %1, i32 noundef %2) local_unnamed_addr #0 {
  %4 = getelementptr i8, ptr %0, i64 32
  %.val15 = load ptr, ptr %4, align 8, !tbaa !3
  %5 = sext i32 %1 to i64
  %6 = getelementptr inbounds %struct.Gia_Obj_t_, ptr %.val15, i64 %5
  %7 = load i64, ptr %6, align 4
  %8 = and i64 %7, 1073741824
  %9 = icmp eq i64 %8, 0
  %10 = icmp ne i32 %2, 0
  %or.cond16 = or i1 %10, %9
  br i1 %or.cond16, label %tailrecurse, label %tailrecurse._crit_edge

tailrecurse:                                      ; preds = %3, %tailrecurse
  %11 = phi i64 [ %23, %tailrecurse ], [ %7, %3 ]
  %12 = phi ptr [ %22, %tailrecurse ], [ %6, %3 ]
  %.tr1317 = phi i32 [ %20, %tailrecurse ], [ %1, %3 ]
  %13 = or i64 %11, 4611686018427387904
  store i64 %13, ptr %12, align 4
  %14 = trunc i64 %11 to i32
  %15 = and i32 %14, 536870911
  %16 = sub nsw i32 %.tr1317, %15
  tail call void @Gia_AcecMark_rec(ptr noundef nonnull %0, i32 noundef %16, i32 noundef 0)
  %.val12 = load i64, ptr %12, align 4
  %17 = lshr i64 %.val12, 32
  %18 = trunc nuw i64 %17 to i32
  %19 = and i32 %18, 536870911
  %20 = sub nsw i32 %.tr1317, %19
  %.val = load ptr, ptr %4, align 8, !tbaa !3
  %21 = sext i32 %20 to i64
  %22 = getelementptr inbounds %struct.Gia_Obj_t_, ptr %.val, i64 %21
  %23 = load i64, ptr %22, align 4
  %24 = and i64 %23, 1073741824
  %25 = icmp eq i64 %24, 0
  br i1 %25, label %tailrecurse, label %tailrecurse._crit_edge

tailrecurse._crit_edge:                           ; preds = %tailrecurse, %3
  ret void
}